#include <math.h>
#include <stdio.h>
#include <stdlib.h>
#include <string.h>

int main()
{
	int N,i,j,b;
	int a[100]={0};
	scanf("%d",&N);
	a[0]=1;
	for(i=0;i<N;i++)
	{
		for(j=0;j<100;j++)
		{
			a[j]*=2;
		}
		for(j=0;j<100;j++)
		{
			if(a[j]>9)
			{
				a[j+1]++;
				a[j]%=10;
			}
		}
	}
	for(j=99;j>=0;j--)
	{
		if(a[j]!=0)
		{
			b=j;
			break;
		}
	}
	for(j=b;j>=0;j--)
	{
		printf("%d",a[j]);
	}
	return 0;
}



